target datalayout = "e-m:e-p270:32:32-p271:32:32-p272:64:64-i64:64-i128:128-f80:128-n8:16:32:64-S128"
target triple = "x86_64-pc-linux-gnu"

%struct.duplication_key = type { i8, i8, i8, i8 }

; Function Attrs: nounwind uwtable
define internal i32 @epl_duplication_equal(ptr noundef %0, ptr noundef %1) #0 {
  %3 = alloca ptr, align 8
  %4 = alloca ptr, align 8
  %5 = alloca ptr, align 8
  %6 = alloca ptr, align 8
  %7 = alloca i32, align 4
  store ptr %0, ptr %3, align 8
  store ptr %1, ptr %4, align 8
  %8 = load ptr, ptr %3, align 8
  store ptr %8, ptr %5, align 8
  %9 = load ptr, ptr %4, align 8
  store ptr %9, ptr %6, align 8
  %10 = load ptr, ptr %5, align 8
  %11 = getelementptr inbounds %struct.duplication_key, ptr %10, i32 0, i32 0
  %12 = load i8, ptr %11, align 1
  %13 = zext i8 %12 to i32
  %14 = load ptr, ptr %6, align 8
  %15 = getelementptr inbounds %struct.duplication_key, ptr %14, i32 0, i32 0
  %16 = load i8, ptr %15, align 1
  %17 = zext i8 %16 to i32
  %18 = icmp eq i32 %13, %17
  br i1 %18, label %19, label %49

19:                                               ; preds = %2
  %20 = load ptr, ptr %5, align 8
  %21 = getelementptr inbounds %struct.duplication_key, ptr %20, i32 0, i32 1
  %22 = load i8, ptr %21, align 1
  %23 = zext i8 %22 to i32
  %24 = load ptr, ptr %6, align 8
  %25 = getelementptr inbounds %struct.duplication_key, ptr %24, i32 0, i32 1
  %26 = load i8, ptr %25, align 1
  %27 = zext i8 %26 to i32
  %28 = icmp eq i32 %23, %27
  br i1 %28, label %29, label %49

29:                                               ; preds = %19
  %30 = load ptr, ptr %5, align 8
  %31 = getelementptr inbounds %struct.duplication_key, ptr %30, i32 0, i32 3
  %32 = load i8, ptr %31, align 1
  %33 = zext i8 %32 to i32
  %34 = load ptr, ptr %6, align 8
  %35 = getelementptr inbounds %struct.duplication_key, ptr %34, i32 0, i32 3
  %36 = load i8, ptr %35, align 1
  %37 = zext i8 %36 to i32
  %38 = icmp eq i32 %33, %37
  br i1 %38, label %39, label %49

39:                                               ; preds = %29
  %40 = load ptr, ptr %5, align 8
  %41 = getelementptr inbounds %struct.duplication_key, ptr %40, i32 0, i32 2
  %42 = load i8, ptr %41, align 1
  %43 = zext i8 %42 to i32
  %44 = load ptr, ptr %6, align 8
  %45 = getelementptr inbounds %struct.duplication_key, ptr %44, i32 0, i32 2
  %46 = load i8, ptr %45, align 1
  %47 = zext i8 %46 to i32
  %48 = icmp eq i32 %43, %47
  br label %49

49:                                               ; preds = %39, %29, %19, %2
  %50 = phi i1 [ false, %29 ], [ false, %19 ], [ false, %2 ], [ %48, %39 ]
  %51 = zext i1 %50 to i32
  store i32 %51, ptr %7, align 4
  %52 = load i32, ptr %7, align 4
  ret i32 %52
}