; Function Attrs: mustprogress nofree norecurse nosync nounwind willreturn memory(argmem: read) uwtable
define internal range(i32 0, 2) i32 @epl_duplication_equal(ptr noundef readonly captures(none) %0, ptr noundef readonly captures(none) %1) #11 {
  %3 = load i8, ptr %0, align 1
  %4 = load i8, ptr %1, align 1
  %5 = icmp eq i8 %3, %4
  br i1 %5, label %6, label %25

6:                                                ; preds = %2
  %7 = getelementptr inbounds nuw i8, ptr %0, i64 1
  %8 = load i8, ptr %7, align 1
  %9 = getelementptr inbounds nuw i8, ptr %1, i64 1
  %10 = load i8, ptr %9, align 1
  %11 = icmp eq i8 %8, %10
  br i1 %11, label %12, label %25

12:                                               ; preds = %6
  %13 = getelementptr inbounds nuw i8, ptr %0, i64 3
  %14 = load i8, ptr %13, align 1
  %15 = getelementptr inbounds nuw i8, ptr %1, i64 3
  %16 = load i8, ptr %15, align 1
  %17 = icmp eq i8 %14, %16
  br i1 %17, label %18, label %25

18:                                               ; preds = %12
  %19 = getelementptr inbounds nuw i8, ptr %0, i64 2
  %20 = load i8, ptr %19, align 1
  %21 = getelementptr inbounds nuw i8, ptr %1, i64 2
  %22 = load i8, ptr %21, align 1
  %23 = icmp eq i8 %20, %22
  %24 = zext i1 %23 to i32
  br label %25

25:                                               ; preds = %18, %12, %6, %2
  %26 = phi i32 [ 0, %12 ], [ 0, %6 ], [ 0, %2 ], [ %24, %18 ]
  ret i32 %26
}